Certificate:
    Data:
        Version: 3 (0x2)
        Serial Number: 1 (0x1)
        Signature Algorithm: sha1WithRSAEncryption
        Issuer: CN=Westpoint Certificate Test CA, ST=Lancashire, C=UK/emailAddress=ca@example.com, O=Westpoint Certificate Test Root Certification Authority
        Validity
            Not Before: Jun 18 10:02:22 2011 GMT
            Not After : Jun 15 10:02:22 2021 GMT
        Subject: CN=example.com, ST=Lancashire, C=UK/emailAddress=test@example.com, O=Some organisation
        Subject Public Key Info:
            Public Key Algorithm: rsaEncryption
                Public-Key: (1024 bit)
                Modulus:
                    00:ce:39:a9:f6:3c:95:71:7d:a9:45:ef:62:26:3d:
                    97:b0:35:df:5b:99:2a:e5:a9:f8:85:6a:a0:f6:74:
                    85:a2:31:5d:96:b8:0b:ce:ac:8b:d5:8a:7d:a3:84:
                    92:ed:eb:e7:fd:dd:3f:48:15:ad:b9:e6:27:da:c8:
                    02:da:4b:e9:73:36:3f:cd:67:2d:61:bb:25:0d:9c:
                    bb:56:36:82:f4:3c:64:52:4b:a8:28:9c:37:92:5b:
                    de:1a:87:47:2e:a5:d9:fb:e5:ed:1f:83:65:72:48:
                    ca:80:0a:bd:97:f1:5e:38:ad:d3:29:6e:21:0a:f8:
                    1f:1b:bc:e9:67:d3:ba:de:e5
                Exponent: 65537 (0x10001)
        X509v3 extensions:
            X509v3 Basic Constraints: 
                CA:FALSE
            Authority Information Access: 
                OCSP - URI:http://ocsp.example.com:8888/

    Signature Algorithm: sha1WithRSAEncryption
        d6:e7:e2:e8:4f:d8:36:ae:97:11:c7:b7:cc:69:ab:12:e7:8b:
        12:c3:96:67:5b:7b:c1:0a:82:54:f5:f8:c5:e5:20:3c:50:5e:
        c4:c5:c7:7f:51:e9:13:a4:e6:52:3a:86:3b:c0:01:63:70:2b:
        7a:9e:0d:4a:4e:09:f8:9a:10:b2:02:47:ac:c3:2b:72:21:36:
        d2:74:dc:bf:48:ef:2d:18:9b:e5:2e:82:21:33:05:1d:f1:36:
        c0:9e:a6:2a:a2:45:e8:87:91:92:16:38:dc:a2:68:94:a3:f0:
        91:51:48:34:a2:23:da:93:18:be:fd:a1:03:f0:7e:77:3e:83:
        e0:9f:e5:f0:bf:61:83:b4:4b:c0:3b:aa:da:04:65:f5:0f:46:
        57:46:01:04:a0:1f:4c:c3:aa:ef:6a:09:62:46:0c:2b:ae:47:
        b8:35:26:da:bf:58:20:68:9b:9e:7e:f4:ed:99:2b:a2:39:27:
        0a:af:d1:5e:1e:96:37:ab:77:5c:a5:6b:b6:b9:bf:fe:1b:1e:
        29:31:fd:f7:66:98:7d:ce:d1:b5:35:fa:c3:40:fc:de:26:2d:
        56:34:85:c5:ba:cc:b8:00:49:16:e3:8f:d8:83:21:3b:61:83:
        b9:9d:24:c9:10:0a:c6:bf:7f:b4:1d:90:bc:4f:df:bc:12:fc:
        e6:c1:cd:8f
-----BEGIN CERTIFICATE-----
MIIDYDCCAkigAwIBAgIBATANBgkqhkiG9w0BAQUFADCBqzEmMCQGA1UEAxMdV2Vz
dHBvaW50IENlcnRpZmljYXRlIFRlc3QgQ0ExEzARBgNVBAgTCkxhbmNhc2hpcmUx
CzAJBgNVBAYTAlVLMR0wGwYJKoZIhvcNAQkBFg5jYUBleGFtcGxlLmNvbTFAMD4G
A1UEChM3V2VzdHBvaW50IENlcnRpZmljYXRlIFRlc3QgUm9vdCBDZXJ0aWZpY2F0
aW9uIEF1dGhvcml0eTAeFw0xMTA2MTgxMDAyMjJaFw0yMTA2MTUxMDAyMjJaMHUx
FDASBgNVBAMTC2V4YW1wbGUuY29tMRMwEQYDVQQIEwpMYW5jYXNoaXJlMQswCQYD
VQQGEwJVSzEfMB0GCSqGSIb3DQEJARYQdGVzdEBleGFtcGxlLmNvbTEaMBgGA1UE
ChMRU29tZSBvcmdhbmlzYXRpb24wgZ8wDQYJKoZIhvcNAQEBBQADgY0AMIGJAoGB
AM45qfY8lXF9qUXvYiY9l7A131uZKuWp+IVqoPZ0haIxXZa4C86si9WKfaOEku3r
5/3dP0gVrbnmJ9rIAtpL6XM2P81nLWG7JQ2cu1Y2gvQ8ZFJLqCicN5Jb3hqHRy6l
2fvl7R+DZXJIyoAKvZfxXjit0yluIQr4Hxu86WfTut7lAgMBAAGjSDBGMAkGA1Ud
EwQCMAAwOQYIKwYBBQUHAQEELTArMCkGCCsGAQUFBzABhh1odHRwOi8vb2NzcC5l
eGFtcGxlLmNvbTo4ODg4LzANBgkqhkiG9w0BAQUFAAOCAQEA1ufi6E/YNq6XEce3
zGmrEueLEsOWZ1t7wQqCVPX4xeUgPFBexMXHf1HpE6TmUjqGO8ABY3Arep4NSk4J
+JoQsgJHrMMrciE20nTcv0jvLRib5S6CITMFHfE2wJ6mKqJF6IeRkhY43KJolKPw
kVFINKIj2pMYvv2hA/B+dz6D4J/l8L9hg7RLwDuq2gRl9Q9GV0YBBKAfTMOq72oJ
YkYMK65HuDUm2r9YIGibnn707ZkrojknCq/RXh6WN6t3XKVrtrm//hseKTH992aY
fc7RtTX6w0D83iYtVjSFxbrMuABJFuOP2IMhO2GDuZ0kyRAKxr9/tB2QvE/fvBL8
5sHNjw==
-----END CERTIFICATE-----
